target datalayout = "e-m:e-p270:32:32-p271:32:32-p272:64:64-i64:64-i128:128-f80:128-n8:16:32:64-S128"
target triple = "x86_64-pc-linux-gnu"

; Function Attrs: nounwind uwtable
define noalias ptr @CRYPTO_strdup(ptr noundef %0, ptr noundef %1, i32 noundef %2) #0 {
  %4 = alloca ptr, align 8
  %5 = alloca ptr, align 8
  %6 = alloca ptr, align 8
  %7 = alloca i32, align 4
  %8 = alloca ptr, align 8
  %9 = alloca i32, align 4
  store ptr %0, ptr %5, align 8, !tbaa !3
  store ptr %1, ptr %6, align 8, !tbaa !3
  store i32 %2, ptr %7, align 4, !tbaa !8
  call void @llvm.lifetime.start.p0(i64 8, ptr %8) #8
  %10 = load ptr, ptr %5, align 8, !tbaa !3
  %11 = icmp eq ptr %10, null
  br i1 %11, label %12, label %13

12:                                               ; preds = %3
  store ptr null, ptr %4, align 8
  store i32 1, ptr %9, align 4
  br label %28

13:                                               ; preds = %3
  %14 = load ptr, ptr %5, align 8, !tbaa !3
  %15 = call i64 @strlen(ptr noundef %14) #9
  %16 = add i64 %15, 1
  %17 = load ptr, ptr %6, align 8, !tbaa !3
  %18 = load i32, ptr %7, align 4, !tbaa !8
  %19 = call noalias ptr @CRYPTO_malloc(i64 noundef %16, ptr noundef %17, i32 noundef %18)
  store ptr %19, ptr %8, align 8, !tbaa !3
  %20 = load ptr, ptr %8, align 8, !tbaa !3
  %21 = icmp ne ptr %20, null
  br i1 %21, label %22, label %26

22:                                               ; preds = %13
  %23 = load ptr, ptr %8, align 8, !tbaa !3
  %24 = load ptr, ptr %5, align 8, !tbaa !3
  %25 = call ptr @strcpy(ptr noundef %23, ptr noundef %24) #8
  br label %26

26:                                               ; preds = %22, %13
  %27 = load ptr, ptr %8, align 8, !tbaa !3
  store ptr %27, ptr %4, align 8
  store i32 1, ptr %9, align 4
  br label %28

28:                                               ; preds = %26, %12
  call void @llvm.lifetime.end.p0(i64 8, ptr %8) #8
  %29 = load ptr, ptr %4, align 8
  ret ptr %29
}