; Function Attrs: nounwind uwtable
define noalias ptr @CRYPTO_strdup(ptr noundef readonly captures(address_is_null) %0, ptr noundef %1, i32 noundef %2) local_unnamed_addr #0 {
  %4 = icmp eq ptr %0, null
  br i1 %4, label %11, label %5

5:                                                ; preds = %3
  %6 = tail call i64 @strlen(ptr noundef nonnull dereferenceable(1) %0) #15
  %7 = add i64 %6, 1
  %8 = tail call noalias ptr @CRYPTO_malloc(i64 noundef %7, ptr noundef %1, i32 noundef %2) #16
  %.not = icmp eq ptr %8, null
  br i1 %.not, label %11, label %9

9:                                                ; preds = %5
  %10 = tail call ptr @strcpy(ptr noundef nonnull dereferenceable(1) %8, ptr noundef nonnull dereferenceable(1) %0) #16
  br label %11

11:                                               ; preds = %5, %9, %3
  %.0 = phi ptr [ null, %3 ], [ %8, %9 ], [ null, %5 ]
  ret ptr %.0
}